target datalayout = "e-m:e-p270:32:32-p271:32:32-p272:64:64-i64:64-i128:128-f80:128-n8:16:32:64-S128"
target triple = "x86_64-pc-linux-gnu"

%struct._smb2_fid_info_t = type { i64, i64, i64, i32, i32, i32, i32, ptr, i32, i32 }

; Function Attrs: nounwind null_pointer_is_valid sspstrong uwtable
define internal i32 @smb2_fid_info_equal(ptr noundef %0, ptr noundef %1) #3 {
  %3 = alloca i32, align 4
  %4 = alloca ptr, align 8
  %5 = alloca ptr, align 8
  %6 = alloca ptr, align 8
  %7 = alloca ptr, align 8
  %8 = alloca i32, align 4
  store ptr %0, ptr %4, align 8
  store ptr %1, ptr %5, align 8
  call void @llvm.lifetime.start.p0(i64 8, ptr %6) #13
  %9 = load ptr, ptr %4, align 8
  store ptr %9, ptr %6, align 8
  call void @llvm.lifetime.start.p0(i64 8, ptr %7) #13
  %10 = load ptr, ptr %5, align 8
  store ptr %10, ptr %7, align 8
  %11 = load ptr, ptr %6, align 8
  %12 = getelementptr inbounds nuw %struct._smb2_fid_info_t, ptr %11, i32 0, i32 4
  %13 = load i32, ptr %12, align 4
  %14 = icmp ne i32 %13, 0
  br i1 %14, label %18, label %15

15:                                               ; preds = %2
  %16 = load ptr, ptr %5, align 8
  store ptr %16, ptr %6, align 8
  %17 = load ptr, ptr %4, align 8
  store ptr %17, ptr %7, align 8
  br label %18

18:                                               ; preds = %15, %2
  %19 = load ptr, ptr %6, align 8
  %20 = getelementptr inbounds nuw %struct._smb2_fid_info_t, ptr %19, i32 0, i32 0
  %21 = load i64, ptr %20, align 8
  %22 = load ptr, ptr %7, align 8
  %23 = getelementptr inbounds nuw %struct._smb2_fid_info_t, ptr %22, i32 0, i32 0
  %24 = load i64, ptr %23, align 8
  %25 = icmp ne i64 %21, %24
  br i1 %25, label %26, label %27

26:                                               ; preds = %18
  store i32 0, ptr %3, align 4
  store i32 1, ptr %8, align 4
  br label %72

27:                                               ; preds = %18
  %28 = load ptr, ptr %6, align 8
  %29 = getelementptr inbounds nuw %struct._smb2_fid_info_t, ptr %28, i32 0, i32 1
  %30 = load i64, ptr %29, align 8
  %31 = load ptr, ptr %7, align 8
  %32 = getelementptr inbounds nuw %struct._smb2_fid_info_t, ptr %31, i32 0, i32 1
  %33 = load i64, ptr %32, align 8
  %34 = icmp ne i64 %30, %33
  br i1 %34, label %35, label %36

35:                                               ; preds = %27
  store i32 0, ptr %3, align 4
  store i32 1, ptr %8, align 4
  br label %72

36:                                               ; preds = %27
  %37 = load ptr, ptr %6, align 8
  %38 = getelementptr inbounds nuw %struct._smb2_fid_info_t, ptr %37, i32 0, i32 2
  %39 = load i64, ptr %38, align 8
  %40 = load ptr, ptr %7, align 8
  %41 = getelementptr inbounds nuw %struct._smb2_fid_info_t, ptr %40, i32 0, i32 2
  %42 = load i64, ptr %41, align 8
  %43 = icmp ne i64 %39, %42
  br i1 %43, label %44, label %45

44:                                               ; preds = %36
  store i32 0, ptr %3, align 4
  store i32 1, ptr %8, align 4
  br label %72

45:                                               ; preds = %36
  %46 = load ptr, ptr %6, align 8
  %47 = getelementptr inbounds nuw %struct._smb2_fid_info_t, ptr %46, i32 0, i32 3
  %48 = load i32, ptr %47, align 8
  %49 = load ptr, ptr %7, align 8
  %50 = getelementptr inbounds nuw %struct._smb2_fid_info_t, ptr %49, i32 0, i32 3
  %51 = load i32, ptr %50, align 8
  %52 = icmp ne i32 %48, %51
  br i1 %52, label %53, label %54

53:                                               ; preds = %45
  store i32 0, ptr %3, align 4
  store i32 1, ptr %8, align 4
  br label %72

54:                                               ; preds = %45
  %55 = load ptr, ptr %7, align 8
  %56 = getelementptr inbounds nuw %struct._smb2_fid_info_t, ptr %55, i32 0, i32 5
  %57 = load i32, ptr %56, align 8
  %58 = load ptr, ptr %6, align 8
  %59 = getelementptr inbounds nuw %struct._smb2_fid_info_t, ptr %58, i32 0, i32 4
  %60 = load i32, ptr %59, align 4
  %61 = icmp ule i32 %57, %60
  br i1 %61, label %62, label %70

62:                                               ; preds = %54
  %63 = load ptr, ptr %6, align 8
  %64 = getelementptr inbounds nuw %struct._smb2_fid_info_t, ptr %63, i32 0, i32 4
  %65 = load i32, ptr %64, align 4
  %66 = load ptr, ptr %7, align 8
  %67 = getelementptr inbounds nuw %struct._smb2_fid_info_t, ptr %66, i32 0, i32 6
  %68 = load i32, ptr %67, align 4
  %69 = icmp ule i32 %65, %68
  br i1 %69, label %71, label %70

70:                                               ; preds = %62, %54
  store i32 0, ptr %3, align 4
  store i32 1, ptr %8, align 4
  br label %72

71:                                               ; preds = %62
  store i32 1, ptr %3, align 4
  store i32 1, ptr %8, align 4
  br label %72

72:                                               ; preds = %71, %70, %53, %44, %35, %26
  call void @llvm.lifetime.end.p0(i64 8, ptr %7) #13
  call void @llvm.lifetime.end.p0(i64 8, ptr %6) #13
  %73 = load i32, ptr %3, align 4
  ret i32 %73
}