; Function Attrs: mustprogress nofree norecurse nosync nounwind null_pointer_is_valid sspstrong willreturn memory(read, inaccessiblemem: none) uwtable
define internal range(i32 0, 2) i32 @smb2_fid_info_equal(ptr noundef readonly captures(none) %0, ptr noundef readonly captures(none) %1) #8 {
  %3 = getelementptr inbounds nuw i8, ptr %0, i64 28
  %4 = load i32, ptr %3, align 4
  %.not = icmp eq i32 %4, 0
  %spec.select = select i1 %.not, ptr %1, ptr %0
  %spec.select26 = select i1 %.not, ptr %0, ptr %1
  %5 = load i64, ptr %spec.select, align 8
  %6 = load i64, ptr %spec.select26, align 8
  %.not20 = icmp eq i64 %5, %6
  br i1 %.not20, label %7, label %30

7:                                                ; preds = %2
  %8 = getelementptr inbounds nuw i8, ptr %spec.select, i64 8
  %9 = load i64, ptr %8, align 8
  %10 = getelementptr inbounds nuw i8, ptr %spec.select26, i64 8
  %11 = load i64, ptr %10, align 8
  %.not21 = icmp eq i64 %9, %11
  br i1 %.not21, label %12, label %30

12:                                               ; preds = %7
  %13 = getelementptr inbounds nuw i8, ptr %spec.select, i64 16
  %14 = load i64, ptr %13, align 8
  %15 = getelementptr inbounds nuw i8, ptr %spec.select26, i64 16
  %16 = load i64, ptr %15, align 8
  %.not22 = icmp eq i64 %14, %16
  br i1 %.not22, label %17, label %30

17:                                               ; preds = %12
  %18 = getelementptr inbounds nuw i8, ptr %spec.select, i64 24
  %19 = load i32, ptr %18, align 8
  %20 = getelementptr inbounds nuw i8, ptr %spec.select26, i64 24
  %21 = load i32, ptr %20, align 8
  %.not23 = icmp eq i32 %19, %21
  br i1 %.not23, label %22, label %30

22:                                               ; preds = %17
  %23 = getelementptr inbounds nuw i8, ptr %spec.select26, i64 32
  %24 = load i32, ptr %23, align 8
  %25 = getelementptr inbounds nuw i8, ptr %spec.select, i64 28
  %26 = load i32, ptr %25, align 4
  %.not24 = icmp ugt i32 %24, %26
  br i1 %.not24, label %30, label %27

27:                                               ; preds = %22
  %28 = getelementptr inbounds nuw i8, ptr %spec.select26, i64 36
  %29 = load i32, ptr %28, align 4
  %.not25 = icmp ule i32 %26, %29
  %spec.select27 = zext i1 %.not25 to i32
  br label %30

30:                                               ; preds = %27, %22, %17, %12, %7, %2
  %.018 = phi i32 [ 0, %2 ], [ 0, %7 ], [ 0, %12 ], [ 0, %17 ], [ 0, %22 ], [ %spec.select27, %27 ]
  ret i32 %.018
}